target datalayout = "e-m:e-p270:32:32-p271:32:32-p272:64:64-i64:64-i128:128-f80:128-n8:16:32:64-S128"
target triple = "x86_64-unknown-linux-gnu"

%struct.__va_list_tag = type { i32, i32, ptr, ptr }
%struct.File = type { ptr, i32, ptr, ptr, i32 }
%struct.Token = type { i32, ptr, i64, x86_fp80, ptr, i32, ptr, ptr, ptr, ptr, i32, i32, i8, i8, ptr, ptr }

; Function Attrs: noreturn nounwind uwtable
define dso_local void @error_tok(ptr noundef %tok, ptr noundef %fmt, ...) #0 {
entry:
  %tok.addr = alloca ptr, align 8
  %fmt.addr = alloca ptr, align 8
  %ap = alloca [1 x %struct.__va_list_tag], align 16
  store ptr %tok, ptr %tok.addr, align 8
  store ptr %fmt, ptr %fmt.addr, align 8
  %arraydecay = getelementptr inbounds [1 x %struct.__va_list_tag], ptr %ap, i64 0, i64 0
  call void @llvm.va_start(ptr %arraydecay)
  %0 = load ptr, ptr %tok.addr, align 8
  %file = getelementptr inbounds %struct.Token, ptr %0, i32 0, i32 8
  %1 = load ptr, ptr %file, align 16
  %name = getelementptr inbounds %struct.File, ptr %1, i32 0, i32 0
  %2 = load ptr, ptr %name, align 8
  %3 = load ptr, ptr %tok.addr, align 8
  %file1 = getelementptr inbounds %struct.Token, ptr %3, i32 0, i32 8
  %4 = load ptr, ptr %file1, align 16
  %contents = getelementptr inbounds %struct.File, ptr %4, i32 0, i32 2
  %5 = load ptr, ptr %contents, align 8
  %6 = load ptr, ptr %tok.addr, align 8
  %line_no = getelementptr inbounds %struct.Token, ptr %6, i32 0, i32 10
  %7 = load i32, ptr %line_no, align 16
  %8 = load ptr, ptr %tok.addr, align 8
  %loc = getelementptr inbounds %struct.Token, ptr %8, i32 0, i32 4
  %9 = load ptr, ptr %loc, align 16
  %10 = load ptr, ptr %fmt.addr, align 8
  %arraydecay2 = getelementptr inbounds [1 x %struct.__va_list_tag], ptr %ap, i64 0, i64 0
  call void @verror_at(ptr noundef %2, ptr noundef %5, i32 noundef %7, ptr noundef %9, ptr noundef %10, ptr noundef %arraydecay2)
  call void @exit(i32 noundef 1) #11
  unreachable
}